; Function Attrs: mustprogress nounwind uwtable
define dso_local noundef i64 @_ZNK4llvm11MCAssembler17getFragmentOffsetERKNS_10MCFragmentE(ptr noundef nonnull align 8 dereferenceable(372) %0, ptr nocapture noundef nonnull readonly align 8 dereferenceable(30) %1) local_unnamed_addr #0 align 2 {
  %3 = getelementptr inbounds nuw i8, ptr %1, i64 8
  %4 = load ptr, ptr %3, align 8
  %5 = getelementptr inbounds nuw i8, ptr %4, i64 48
  %6 = load i8, ptr %5, align 8
  %7 = and i8 %6, 4
  %.not.i = icmp eq i8 %7, 0
  br i1 %.not.i, label %8, label %_ZNK4llvm11MCAssembler11ensureValidERNS_9MCSectionE.exit

8:                                                ; preds = %2
  %9 = or disjoint i8 %6, 4
  store i8 %9, ptr %5, align 8
  %10 = getelementptr inbounds nuw i8, ptr %4, i64 8
  %11 = load ptr, ptr %10, align 8
  %.sroa.015.020.i = load ptr, ptr %11, align 8
  %.not1821.i = icmp eq ptr %.sroa.015.020.i, null
  br i1 %.not1821.i, label %_ZNK4llvm11MCAssembler11ensureValidERNS_9MCSectionE.exit, label %.lr.ph.i

.lr.ph.i:                                         ; preds = %8
  %12 = getelementptr inbounds nuw i8, ptr %0, i64 368
  br label %13

13:                                               ; preds = %22, %.lr.ph.i
  %.sroa.015.024.i = phi ptr [ %.sroa.015.020.i, %.lr.ph.i ], [ %.sroa.015.0.i, %22 ]
  %.023.i = phi ptr [ null, %.lr.ph.i ], [ %.sroa.015.024.i, %22 ]
  %.01422.i = phi i64 [ 0, %.lr.ph.i ], [ %24, %22 ]
  %14 = getelementptr inbounds nuw i8, ptr %.sroa.015.024.i, i64 16
  store i64 %.01422.i, ptr %14, align 8
  %15 = load i32, ptr %12, align 8
  %.not19.i = icmp eq i32 %15, 0
  br i1 %.not19.i, label %22, label %16

16:                                               ; preds = %13
  %17 = getelementptr inbounds nuw i8, ptr %.sroa.015.024.i, i64 29
  %18 = load i8, ptr %17, align 1
  %19 = trunc i8 %18 to i1
  br i1 %19, label %20, label %22

20:                                               ; preds = %16
  tail call void @_ZNK4llvm11MCAssembler12layoutBundleEPNS_10MCFragmentES2_(ptr noundef nonnull align 8 dereferenceable(372) %0, ptr noundef %.023.i, ptr noundef nonnull %.sroa.015.024.i)
  %21 = load i64, ptr %14, align 8
  br label %22

22:                                               ; preds = %20, %16, %13
  %.1.i = phi i64 [ %21, %20 ], [ %.01422.i, %16 ], [ %.01422.i, %13 ]
  %23 = tail call noundef i64 @_ZNK4llvm11MCAssembler19computeFragmentSizeERKNS_10MCFragmentE(ptr noundef nonnull align 8 dereferenceable(372) %0, ptr noundef nonnull align 8 dereferenceable(30) %.sroa.015.024.i)
  %24 = add i64 %23, %.1.i
  %.sroa.015.0.i = load ptr, ptr %.sroa.015.024.i, align 8
  %.not18.i = icmp eq ptr %.sroa.015.0.i, null
  br i1 %.not18.i, label %_ZNK4llvm11MCAssembler11ensureValidERNS_9MCSectionE.exit, label %13

_ZNK4llvm11MCAssembler11ensureValidERNS_9MCSectionE.exit: ; preds = %22, %2, %8
  %25 = getelementptr inbounds nuw i8, ptr %1, i64 16
  %26 = load i64, ptr %25, align 8
  ret i64 %26
}